target datalayout = "e-m:e-p270:32:32-p271:32:32-p272:64:64-i64:64-i128:128-f80:128-n8:16:32:64-S128"
target triple = "x86_64-pc-linux-gnu"

%class.rational = type { %class.mpq }
%class.mpq = type { %class.mpz, %class.mpz }
%class.mpz = type { i32, i8, ptr }
%class.svector.9 = type { %class.vector.10 }
%class.vector.10 = type { ptr }
%"class.dd::pdd_manager" = type { %class.svector, %class.vector.0, %class.ptr_hashtable, %class.hashtable, %class.hashtable.3, %class.map, %class.svector.9, ptr, %class.svector.9, %class.svector.9, %class.svector.9, %class.svector.9, %class.small_object_allocator, %class.svector.9, i32, %class.svector.9, %class.svector.9, %class.svector.11, i8, i8, i32, i32, %class.svector.9, %class.svector.9, %class.rational, %class.rational, i32, %class.rational, %class.svector.9, i32, %class.svector.9, %class.svector.9, %class.rational, %class.rational }
%class.svector = type { %class.vector }
%class.vector = type { ptr }
%class.vector.0 = type { ptr }
%class.ptr_hashtable = type { %class.core_hashtable.base, [4 x i8] }
%class.core_hashtable.base = type <{ ptr, i32, i32, i32 }>
%class.hashtable = type { %class.core_hashtable.base.2, [4 x i8] }
%class.core_hashtable.base.2 = type <{ ptr, i32, i32, i32 }>
%class.hashtable.3 = type { %class.core_hashtable.base.5, [4 x i8] }
%class.core_hashtable.base.5 = type <{ ptr, i32, i32, i32 }>
%class.map = type { %class.table2map }
%class.table2map = type { %class.core_hashtable.7 }
%class.core_hashtable.7 = type <{ ptr, i32, i32, i32, [4 x i8] }>
%class.small_object_allocator = type { [32 x ptr], [32 x ptr], i64 }
%class.svector.11 = type { %class.vector.12 }
%class.vector.12 = type { ptr }
%"struct.dd::pdd_manager::node" = type { i32, i32, i32, i32 }

; Function Attrs: mustprogress nounwind uwtable
define linkonce_odr hidden noundef zeroext i1 @_ZNK2dd11pdd_manager4node6is_valEv(ptr noundef nonnull align 4 dereferenceable(16) %0) #5 comdat align 2 {
  %2 = alloca ptr, align 8
  store ptr %0, ptr %2, align 8, !tbaa !124
  %3 = load ptr, ptr %2, align 8
  %4 = getelementptr inbounds nuw %"struct.dd::pdd_manager::node", ptr %3, i32 0, i32 2
  %5 = load i32, ptr %4, align 4, !tbaa !128
  %6 = icmp eq i32 %5, 0
  br i1 %6, label %7, label %17

7:                                                ; preds = %1
  %8 = getelementptr inbounds nuw %"struct.dd::pdd_manager::node", ptr %3, i32 0, i32 1
  %9 = load i32, ptr %8, align 4, !tbaa !127
  %10 = icmp ne i32 %9, 0
  br i1 %10, label %15, label %11

11:                                               ; preds = %7
  %12 = getelementptr inbounds nuw %"struct.dd::pdd_manager::node", ptr %3, i32 0, i32 3
  %13 = load i32, ptr %12, align 4, !tbaa !95
  %14 = icmp eq i32 %13, 0
  br label %15

15:                                               ; preds = %11, %7
  %16 = phi i1 [ true, %7 ], [ %14, %11 ]
  br label %17

17:                                               ; preds = %15, %1
  %18 = phi i1 [ false, %1 ], [ %16, %15 ]
  ret i1 %18
}

; Function Attrs: mustprogress nounwind uwtable
define linkonce_odr hidden noundef nonnull align 4 dereferenceable(16) ptr @_ZNK6vectorIN2dd11pdd_manager4nodeELb0EjEixEj(ptr noundef nonnull align 8 dereferenceable(8) %0, i32 noundef %1) #5 comdat align 2 {
  %3 = alloca ptr, align 8
  %4 = alloca i32, align 4
  store ptr %0, ptr %3, align 8, !tbaa !108
  store i32 %1, ptr %4, align 4, !tbaa !8
  %5 = load ptr, ptr %3, align 8
  %6 = getelementptr inbounds nuw %class.vector, ptr %5, i32 0, i32 0
  %7 = load ptr, ptr %6, align 8, !tbaa !123
  %8 = load i32, ptr %4, align 4, !tbaa !8
  %9 = zext i32 %8 to i64
  %10 = getelementptr inbounds nuw %"struct.dd::pdd_manager::node", ptr %7, i64 %9
  ret ptr %10
}

; Function Attrs: mustprogress nounwind uwtable
define linkonce_odr hidden noundef nonnull align 4 dereferenceable(16) ptr @_ZN6vectorIN2dd11pdd_manager4nodeELb0EjEixEj(ptr noundef nonnull align 8 dereferenceable(8) %0, i32 noundef %1) #5 comdat align 2 {
  %3 = alloca ptr, align 8
  %4 = alloca i32, align 4
  store ptr %0, ptr %3, align 8, !tbaa !108
  store i32 %1, ptr %4, align 4, !tbaa !8
  %5 = load ptr, ptr %3, align 8
  %6 = getelementptr inbounds nuw %class.vector, ptr %5, i32 0, i32 0
  %7 = load ptr, ptr %6, align 8, !tbaa !123
  %8 = load i32, ptr %4, align 4, !tbaa !8
  %9 = zext i32 %8 to i64
  %10 = getelementptr inbounds nuw %"struct.dd::pdd_manager::node", ptr %7, i64 %9
  ret ptr %10
}

; Function Attrs: inlinehint mustprogress nounwind uwtable
define linkonce_odr hidden noundef i32 @_ZNK2dd11pdd_manager5levelEj(ptr noundef nonnull align 8 dereferenceable(952) %0, i32 noundef %1) #8 comdat align 2 {
  %3 = alloca ptr, align 8
  %4 = alloca i32, align 4
  store ptr %0, ptr %3, align 8, !tbaa !3
  store i32 %1, ptr %4, align 4, !tbaa !8
  %5 = load ptr, ptr %3, align 8
  %6 = getelementptr inbounds nuw %"class.dd::pdd_manager", ptr %5, i32 0, i32 0
  %7 = load i32, ptr %4, align 4, !tbaa !8
  %8 = call noundef nonnull align 4 dereferenceable(16) ptr @_ZNK6vectorIN2dd11pdd_manager4nodeELb0EjEixEj(ptr noundef nonnull align 8 dereferenceable(8) %6, i32 noundef %7)
  %9 = load i32, ptr %8, align 4
  %10 = lshr i32 %9, 10
  ret i32 %10
}

; Function Attrs: inlinehint mustprogress uwtable
define linkonce_odr hidden noundef zeroext i1 @_ZNK2dd11pdd_manager6is_valEj(ptr noundef nonnull align 8 dereferenceable(952) %0, i32 noundef %1) #7 comdat align 2 {
  %3 = alloca ptr, align 8
  %4 = alloca i32, align 4
  store ptr %0, ptr %3, align 8, !tbaa !3
  store i32 %1, ptr %4, align 4, !tbaa !8
  %5 = load ptr, ptr %3, align 8
  %6 = getelementptr inbounds nuw %"class.dd::pdd_manager", ptr %5, i32 0, i32 0
  %7 = load i32, ptr %4, align 4, !tbaa !8
  %8 = call noundef nonnull align 4 dereferenceable(16) ptr @_ZNK6vectorIN2dd11pdd_manager4nodeELb0EjEixEj(ptr noundef nonnull align 8 dereferenceable(8) %6, i32 noundef %7)
  %9 = call noundef zeroext i1 @_ZNK2dd11pdd_manager4node6is_valEv(ptr noundef nonnull align 4 dereferenceable(16) %8)
  ret i1 %9
}

; Function Attrs: mustprogress nounwind uwtable
define linkonce_odr hidden noundef zeroext i1 @_ZNK2dd11pdd_manager4node11is_internalEv(ptr noundef nonnull align 4 dereferenceable(16) %0) #5 comdat align 2 {
  %2 = alloca ptr, align 8
  store ptr %0, ptr %2, align 8, !tbaa !124
  %3 = load ptr, ptr %2, align 8
  %4 = getelementptr inbounds nuw %"struct.dd::pdd_manager::node", ptr %3, i32 0, i32 2
  %5 = load i32, ptr %4, align 4, !tbaa !128
  %6 = icmp eq i32 %5, 0
  br i1 %6, label %7, label %15

7:                                                ; preds = %1
  %8 = getelementptr inbounds nuw %"struct.dd::pdd_manager::node", ptr %3, i32 0, i32 1
  %9 = load i32, ptr %8, align 4, !tbaa !127
  %10 = icmp eq i32 %9, 0
  br i1 %10, label %11, label %15

11:                                               ; preds = %7
  %12 = getelementptr inbounds nuw %"struct.dd::pdd_manager::node", ptr %3, i32 0, i32 3
  %13 = load i32, ptr %12, align 4, !tbaa !95
  %14 = icmp ne i32 %13, 0
  br label %15

15:                                               ; preds = %11, %7, %1
  %16 = phi i1 [ false, %7 ], [ false, %1 ], [ %14, %11 ]
  ret i1 %16
}

; Function Attrs: mustprogress uwtable
define hidden noundef zeroext i1 @_ZN2dd11pdd_manager11well_formedERKNS0_4nodeE(ptr noundef nonnull align 8 dereferenceable(952) %0, ptr noundef nonnull align 4 dereferenceable(16) %1) #4 align 2 {
  %3 = alloca i1, align 1
  %4 = alloca ptr, align 8
  %5 = alloca ptr, align 8
  %6 = alloca i32, align 4
  %7 = alloca i32, align 4
  %8 = alloca i32, align 4
  %9 = alloca i8, align 1
  %10 = alloca i8, align 1
  store ptr %0, ptr %4, align 8, !tbaa !3
  store ptr %1, ptr %5, align 8, !tbaa !124
  %11 = load ptr, ptr %4, align 8
  call void @llvm.lifetime.start.p0(i64 4, ptr %6) #3
  %12 = load ptr, ptr %5, align 8, !tbaa !124
  %13 = getelementptr inbounds nuw %"struct.dd::pdd_manager::node", ptr %12, i32 0, i32 1
  %14 = load i32, ptr %13, align 4, !tbaa !127
  store i32 %14, ptr %6, align 4, !tbaa !8
  call void @llvm.lifetime.start.p0(i64 4, ptr %7) #3
  %15 = load ptr, ptr %5, align 8, !tbaa !124
  %16 = getelementptr inbounds nuw %"struct.dd::pdd_manager::node", ptr %15, i32 0, i32 2
  %17 = load i32, ptr %16, align 4, !tbaa !128
  store i32 %17, ptr %7, align 4, !tbaa !8
  %18 = load ptr, ptr %5, align 8, !tbaa !124
  %19 = call noundef zeroext i1 @_ZNK2dd11pdd_manager4node11is_internalEv(ptr noundef nonnull align 4 dereferenceable(16) %18)
  br i1 %19, label %23, label %20

20:                                               ; preds = %2
  %21 = load i32, ptr %7, align 4, !tbaa !8
  %22 = icmp eq i32 %21, 0
  br i1 %22, label %23, label %24

23:                                               ; preds = %20, %2
  store i1 true, ptr %3, align 1
  store i32 1, ptr %8, align 4
  br label %72

24:                                               ; preds = %20
  call void @llvm.lifetime.start.p0(i64 1, ptr %9) #3
  %25 = load i32, ptr %6, align 4, !tbaa !8
  %26 = call noundef zeroext i1 @_ZNK2dd11pdd_manager6is_valEj(ptr noundef nonnull align 8 dereferenceable(952) %11, i32 noundef %25)
  br i1 %26, label %42, label %27

27:                                               ; preds = %24
  %28 = load i32, ptr %6, align 4, !tbaa !8
  %29 = call noundef i32 @_ZNK2dd11pdd_manager5levelEj(ptr noundef nonnull align 8 dereferenceable(952) %11, i32 noundef %28)
  %30 = load ptr, ptr %5, align 8, !tbaa !124
  %31 = load i32, ptr %30, align 4
  %32 = lshr i32 %31, 10
  %33 = icmp ult i32 %29, %32
  br i1 %33, label %34, label %40

34:                                               ; preds = %27
  %35 = getelementptr inbounds nuw %"class.dd::pdd_manager", ptr %11, i32 0, i32 0
  %36 = load i32, ptr %6, align 4, !tbaa !8
  %37 = call noundef nonnull align 4 dereferenceable(16) ptr @_ZN6vectorIN2dd11pdd_manager4nodeELb0EjEixEj(ptr noundef nonnull align 8 dereferenceable(8) %35, i32 noundef %36)
  %38 = call noundef zeroext i1 @_ZNK2dd11pdd_manager4node11is_internalEv(ptr noundef nonnull align 4 dereferenceable(16) %37)
  %39 = xor i1 %38, true
  br label %40

40:                                               ; preds = %34, %27
  %41 = phi i1 [ false, %27 ], [ %39, %34 ]
  br label %42

42:                                               ; preds = %40, %24
  %43 = phi i1 [ true, %24 ], [ %41, %40 ]
  %44 = zext i1 %43 to i8
  store i8 %44, ptr %9, align 1, !tbaa !199
  call void @llvm.lifetime.start.p0(i64 1, ptr %10) #3
  %45 = load i32, ptr %7, align 4, !tbaa !8
  %46 = call noundef zeroext i1 @_ZNK2dd11pdd_manager6is_valEj(ptr noundef nonnull align 8 dereferenceable(952) %11, i32 noundef %45)
  br i1 %46, label %62, label %47

47:                                               ; preds = %42
  %48 = load i32, ptr %7, align 4, !tbaa !8
  %49 = call noundef i32 @_ZNK2dd11pdd_manager5levelEj(ptr noundef nonnull align 8 dereferenceable(952) %11, i32 noundef %48)
  %50 = load ptr, ptr %5, align 8, !tbaa !124
  %51 = load i32, ptr %50, align 4
  %52 = lshr i32 %51, 10
  %53 = icmp ule i32 %49, %52
  br i1 %53, label %54, label %60

54:                                               ; preds = %47
  %55 = getelementptr inbounds nuw %"class.dd::pdd_manager", ptr %11, i32 0, i32 0
  %56 = load i32, ptr %7, align 4, !tbaa !8
  %57 = call noundef nonnull align 4 dereferenceable(16) ptr @_ZN6vectorIN2dd11pdd_manager4nodeELb0EjEixEj(ptr noundef nonnull align 8 dereferenceable(8) %55, i32 noundef %56)
  %58 = call noundef zeroext i1 @_ZNK2dd11pdd_manager4node11is_internalEv(ptr noundef nonnull align 4 dereferenceable(16) %57)
  %59 = xor i1 %58, true
  br label %60

60:                                               ; preds = %54, %47
  %61 = phi i1 [ false, %47 ], [ %59, %54 ]
  br label %62

62:                                               ; preds = %60, %42
  %63 = phi i1 [ true, %42 ], [ %61, %60 ]
  %64 = zext i1 %63 to i8
  store i8 %64, ptr %10, align 1, !tbaa !199
  %65 = load i8, ptr %9, align 1, !tbaa !199, !range !200, !noundef !201
  %66 = trunc i8 %65 to i1
  br i1 %66, label %67, label %70

67:                                               ; preds = %62
  %68 = load i8, ptr %10, align 1, !tbaa !199, !range !200, !noundef !201
  %69 = trunc i8 %68 to i1
  br label %70

70:                                               ; preds = %67, %62
  %71 = phi i1 [ false, %62 ], [ %69, %67 ]
  store i1 %71, ptr %3, align 1
  store i32 1, ptr %8, align 4
  call void @llvm.lifetime.end.p0(i64 1, ptr %10) #3
  call void @llvm.lifetime.end.p0(i64 1, ptr %9) #3
  br label %72

72:                                               ; preds = %70, %23
  call void @llvm.lifetime.end.p0(i64 4, ptr %7) #3
  call void @llvm.lifetime.end.p0(i64 4, ptr %6) #3
  %73 = load i1, ptr %3, align 1
  ret i1 %73
}