; Function Attrs: mustprogress nofree norecurse nosync nounwind willreturn memory(read, inaccessiblemem: none) uwtable
define hidden noundef zeroext i1 @_ZN2dd11pdd_manager11well_formedERKNS0_4nodeE(ptr noundef nonnull readonly align 8 captures(none) dereferenceable(952) %0, ptr noundef nonnull readonly align 4 captures(none) dereferenceable(16) %1) local_unnamed_addr #15 align 2 {
  %3 = getelementptr inbounds nuw i8, ptr %1, i64 8
  %4 = load i32, ptr %3, align 4, !tbaa !92
  %5 = icmp eq i32 %4, 0
  br i1 %5, label %_ZNK2dd11pdd_manager4node11is_internalEv.exit.thread, label %6

6:                                                ; preds = %2
  %7 = getelementptr inbounds nuw i8, ptr %1, i64 4
  %8 = load i32, ptr %7, align 4, !tbaa !94
  %9 = load ptr, ptr %0, align 8, !tbaa !91
  %10 = zext i32 %8 to i64
  %11 = getelementptr inbounds nuw %"struct.dd::pdd_manager::node", ptr %9, i64 %10
  %12 = getelementptr inbounds nuw i8, ptr %11, i64 8
  %13 = load i32, ptr %12, align 4, !tbaa !92
  %14 = icmp eq i32 %13, 0
  br i1 %14, label %15, label %_ZNK2dd11pdd_manager6is_valEj.exit.thread24

15:                                               ; preds = %6
  %16 = getelementptr inbounds nuw i8, ptr %11, i64 4
  %17 = load i32, ptr %16, align 4, !tbaa !94
  %.not.i.i = icmp eq i32 %17, 0
  br i1 %.not.i.i, label %_ZNK2dd11pdd_manager6is_valEj.exit, label %_ZNK2dd11pdd_manager6is_valEj.exit.thread

_ZNK2dd11pdd_manager6is_valEj.exit:               ; preds = %15
  %18 = getelementptr inbounds nuw i8, ptr %11, i64 12
  %19 = load i32, ptr %18, align 4, !tbaa !98
  %20 = icmp eq i32 %19, 0
  br i1 %20, label %_ZNK2dd11pdd_manager6is_valEj.exit.thread, label %_ZNK2dd11pdd_manager6is_valEj.exit.thread24

_ZNK2dd11pdd_manager6is_valEj.exit.thread24:      ; preds = %6, %_ZNK2dd11pdd_manager6is_valEj.exit
  %21 = load i32, ptr %11, align 4
  %22 = lshr i32 %21, 10
  %23 = load i32, ptr %1, align 4
  %24 = lshr i32 %23, 10
  %25 = icmp samesign ult i32 %22, %24
  br i1 %25, label %26, label %_ZNK2dd11pdd_manager6is_valEj.exit.thread

26:                                               ; preds = %_ZNK2dd11pdd_manager6is_valEj.exit.thread24
  %27 = getelementptr inbounds nuw i8, ptr %11, i64 4
  %28 = load i32, ptr %27, align 4
  %29 = icmp eq i32 %28, 0
  %or.cond.i17 = select i1 %14, i1 %29, i1 false
  br i1 %or.cond.i17, label %30, label %_ZNK2dd11pdd_manager6is_valEj.exit.thread

30:                                               ; preds = %26
  %31 = getelementptr inbounds nuw i8, ptr %11, i64 12
  %32 = load i32, ptr %31, align 4, !tbaa !98
  %33 = icmp eq i32 %32, 0
  br label %_ZNK2dd11pdd_manager6is_valEj.exit.thread

_ZNK2dd11pdd_manager6is_valEj.exit.thread:        ; preds = %30, %26, %15, %_ZNK2dd11pdd_manager6is_valEj.exit.thread24, %_ZNK2dd11pdd_manager6is_valEj.exit
  %34 = phi i1 [ true, %_ZNK2dd11pdd_manager6is_valEj.exit ], [ false, %_ZNK2dd11pdd_manager6is_valEj.exit.thread24 ], [ true, %15 ], [ true, %26 ], [ %33, %30 ]
  %35 = zext i32 %4 to i64
  %36 = getelementptr inbounds nuw %"struct.dd::pdd_manager::node", ptr %9, i64 %35
  %37 = getelementptr inbounds nuw i8, ptr %36, i64 8
  %38 = load i32, ptr %37, align 4, !tbaa !92
  %39 = icmp eq i32 %38, 0
  br i1 %39, label %40, label %_ZNK2dd11pdd_manager6is_valEj.exit20.thread25

40:                                               ; preds = %_ZNK2dd11pdd_manager6is_valEj.exit.thread
  %41 = getelementptr inbounds nuw i8, ptr %36, i64 4
  %42 = load i32, ptr %41, align 4, !tbaa !94
  %.not.i.i19 = icmp eq i32 %42, 0
  br i1 %.not.i.i19, label %_ZNK2dd11pdd_manager6is_valEj.exit20, label %_ZNK2dd11pdd_manager6is_valEj.exit20.thread

_ZNK2dd11pdd_manager6is_valEj.exit20:             ; preds = %40
  %43 = getelementptr inbounds nuw i8, ptr %36, i64 12
  %44 = load i32, ptr %43, align 4, !tbaa !98
  %45 = icmp eq i32 %44, 0
  br i1 %45, label %_ZNK2dd11pdd_manager6is_valEj.exit20.thread, label %_ZNK2dd11pdd_manager6is_valEj.exit20.thread25

_ZNK2dd11pdd_manager6is_valEj.exit20.thread25:    ; preds = %_ZNK2dd11pdd_manager6is_valEj.exit.thread, %_ZNK2dd11pdd_manager6is_valEj.exit20
  %46 = load i32, ptr %36, align 4
  %47 = lshr i32 %46, 10
  %48 = load i32, ptr %1, align 4
  %49 = lshr i32 %48, 10
  %.not = icmp samesign ugt i32 %47, %49
  br i1 %.not, label %_ZNK2dd11pdd_manager6is_valEj.exit20.thread, label %50

50:                                               ; preds = %_ZNK2dd11pdd_manager6is_valEj.exit20.thread25
  %51 = getelementptr inbounds nuw i8, ptr %36, i64 4
  %52 = load i32, ptr %51, align 4
  %53 = icmp eq i32 %52, 0
  %or.cond.i21 = select i1 %39, i1 %53, i1 false
  br i1 %or.cond.i21, label %54, label %_ZNK2dd11pdd_manager6is_valEj.exit20.thread

54:                                               ; preds = %50
  %55 = getelementptr inbounds nuw i8, ptr %36, i64 12
  %56 = load i32, ptr %55, align 4, !tbaa !98
  %57 = icmp eq i32 %56, 0
  br label %_ZNK2dd11pdd_manager6is_valEj.exit20.thread

_ZNK2dd11pdd_manager6is_valEj.exit20.thread:      ; preds = %54, %50, %40, %_ZNK2dd11pdd_manager6is_valEj.exit20.thread25, %_ZNK2dd11pdd_manager6is_valEj.exit20
  %58 = phi i1 [ true, %_ZNK2dd11pdd_manager6is_valEj.exit20 ], [ false, %_ZNK2dd11pdd_manager6is_valEj.exit20.thread25 ], [ true, %40 ], [ true, %50 ], [ %57, %54 ]
  %59 = and i1 %34, %58
  br label %_ZNK2dd11pdd_manager4node11is_internalEv.exit.thread

_ZNK2dd11pdd_manager4node11is_internalEv.exit.thread: ; preds = %2, %_ZNK2dd11pdd_manager6is_valEj.exit20.thread
  %.0 = phi i1 [ %59, %_ZNK2dd11pdd_manager6is_valEj.exit20.thread ], [ true, %2 ]
  ret i1 %.0
}